target datalayout = "e-m:e-p270:32:32-p271:32:32-p272:64:64-i64:64-i128:128-f80:128-n8:16:32:64-S128"
target triple = "x86_64-pc-linux-gnu"

%struct._connParams = type { ptr, ptr, ptr, ptr, i32, ptr }
%struct._restoreOptions = type { i32, i32, i32, i32, i32, i32, ptr, ptr, i32, i32, i32, i32, i32, i32, i32, i32, i32, i32, ptr, i32, i32, i32, ptr, i32, i32, ptr, i32, ptr, i32, i32, i32, i32, i32, %struct.SimpleStringList, %struct.SimpleStringList, %struct.SimpleStringList, %struct.SimpleStringList, %struct.SimpleStringList, %struct.SimpleStringList, i32, %struct._connParams, i32, i32, %struct.pg_compress_specification, i32, i8, i32, ptr, i32, i32, i32, i8, i8 }
%struct.SimpleStringList = type { ptr, ptr }
%struct.pg_compress_specification = type { i32, i32, i32, i32, i8, ptr }
%struct._archiveHandle = type { %struct.Archive, i32, ptr, ptr, i64, i64, i32, %struct.sqlparseInfo, i64, i32, ptr, i64, i64, i64, ptr, ptr, ptr, ptr, ptr, ptr, ptr, ptr, ptr, ptr, ptr, ptr, ptr, ptr, ptr, ptr, ptr, ptr, ptr, ptr, ptr, ptr, ptr, ptr, ptr, ptr, ptr, ptr, ptr, ptr, i32, i32, i8, i32, i8, i32, ptr, ptr, ptr, ptr, i32, i32, ptr, ptr, ptr, %struct.pg_compress_specification, i8, i32, i32, ptr, ptr, ptr, ptr, ptr, i32, ptr, i64, i64, i32, i32, i32, i32, ptr, ptr }
%struct.Archive = type { ptr, ptr, i32, ptr, i32, i8, i32, i32, i32, ptr, i32, i8, ptr, ptr, i8, i32, ptr }
%struct.sqlparseInfo = type { i32, i8, ptr }
%struct.CompressFileHandle = type { ptr, ptr, ptr, ptr, ptr, ptr, ptr, ptr, ptr, %struct.pg_compress_specification, ptr }

@.str.77 = private unnamed_addr constant [35 x i8] c"could not write to output file: %m\00", align 1

; Function Attrs: nounwind uwtable
define internal i32 @RestoringToDB(ptr noundef %0) #0 {
  %2 = alloca ptr, align 8
  %3 = alloca ptr, align 8
  store ptr %0, ptr %2, align 8
  call void @llvm.lifetime.start.p0(i64 8, ptr %3) #11
  %4 = load ptr, ptr %2, align 8
  %5 = getelementptr inbounds nuw %struct._archiveHandle, ptr %4, i32 0, i32 0
  %6 = getelementptr inbounds nuw %struct.Archive, ptr %5, i32 0, i32 1
  %7 = load ptr, ptr %6, align 8
  store ptr %7, ptr %3, align 8
  %8 = load ptr, ptr %3, align 8
  %9 = icmp ne ptr %8, null
  br i1 %9, label %10, label %20

10:                                               ; preds = %1
  %11 = load ptr, ptr %3, align 8
  %12 = getelementptr inbounds nuw %struct._restoreOptions, ptr %11, i32 0, i32 39
  %13 = load i32, ptr %12, align 8
  %14 = icmp ne i32 %13, 0
  br i1 %14, label %15, label %20

15:                                               ; preds = %10
  %16 = load ptr, ptr %2, align 8
  %17 = getelementptr inbounds nuw %struct._archiveHandle, ptr %16, i32 0, i32 42
  %18 = load ptr, ptr %17, align 8
  %19 = icmp ne ptr %18, null
  br label %20

20:                                               ; preds = %15, %10, %1
  %21 = phi i1 [ false, %10 ], [ false, %1 ], [ %19, %15 ]
  %22 = zext i1 %21 to i32
  call void @llvm.lifetime.end.p0(i64 8, ptr %3) #11
  ret i32 %22
}

; Function Attrs: nounwind uwtable
define dso_local void @ahwrite(ptr noundef %0, i64 noundef %1, i64 noundef %2, ptr noundef %3) #0 {
  %5 = alloca ptr, align 8
  %6 = alloca i64, align 8
  %7 = alloca i64, align 8
  %8 = alloca ptr, align 8
  %9 = alloca i32, align 4
  %10 = alloca i64, align 8
  %11 = alloca i64, align 8
  %12 = alloca ptr, align 8
  store ptr %0, ptr %5, align 8
  store i64 %1, ptr %6, align 8
  store i64 %2, ptr %7, align 8
  store ptr %3, ptr %8, align 8
  call void @llvm.lifetime.start.p0(i64 4, ptr %9) #11
  store i32 0, ptr %9, align 4
  %13 = load ptr, ptr %8, align 8
  %14 = getelementptr inbounds nuw %struct._archiveHandle, ptr %13, i32 0, i32 48
  %15 = load i8, ptr %14, align 8, !range !4, !noundef !5
  %16 = trunc i8 %15 to i1
  br i1 %16, label %17, label %79

17:                                               ; preds = %4
  call void @llvm.lifetime.start.p0(i64 8, ptr %10) #11
  %18 = load i64, ptr %6, align 8
  %19 = load i64, ptr %7, align 8
  %20 = mul i64 %18, %19
  store i64 %20, ptr %10, align 8
  br label %21

21:                                               ; preds = %31, %17
  %22 = load ptr, ptr %8, align 8
  %23 = getelementptr inbounds nuw %struct._archiveHandle, ptr %22, i32 0, i32 70
  %24 = load i64, ptr %23, align 8
  %25 = load i64, ptr %10, align 8
  %26 = add i64 %24, %25
  %27 = load ptr, ptr %8, align 8
  %28 = getelementptr inbounds nuw %struct._archiveHandle, ptr %27, i32 0, i32 71
  %29 = load i64, ptr %28, align 8
  %30 = icmp ugt i64 %26, %29
  br i1 %30, label %31, label %60

31:                                               ; preds = %21
  call void @llvm.lifetime.start.p0(i64 8, ptr %11) #11
  %32 = load ptr, ptr %8, align 8
  %33 = getelementptr inbounds nuw %struct._archiveHandle, ptr %32, i32 0, i32 71
  %34 = load i64, ptr %33, align 8
  %35 = load ptr, ptr %8, align 8
  %36 = getelementptr inbounds nuw %struct._archiveHandle, ptr %35, i32 0, i32 70
  %37 = load i64, ptr %36, align 8
  %38 = sub i64 %34, %37
  store i64 %38, ptr %11, align 8
  %39 = load ptr, ptr %8, align 8
  %40 = getelementptr inbounds nuw %struct._archiveHandle, ptr %39, i32 0, i32 69
  %41 = load ptr, ptr %40, align 8
  %42 = load ptr, ptr %8, align 8
  %43 = getelementptr inbounds nuw %struct._archiveHandle, ptr %42, i32 0, i32 70
  %44 = load i64, ptr %43, align 8
  %45 = getelementptr inbounds nuw i8, ptr %41, i64 %44
  %46 = load ptr, ptr %5, align 8
  %47 = load i64, ptr %11, align 8
  call void @llvm.memcpy.p0.p0.i64(ptr align 1 %45, ptr align 1 %46, i64 %47, i1 false)
  %48 = load ptr, ptr %5, align 8
  %49 = load i64, ptr %11, align 8
  %50 = getelementptr inbounds nuw i8, ptr %48, i64 %49
  store ptr %50, ptr %5, align 8
  %51 = load i64, ptr %11, align 8
  %52 = load i64, ptr %10, align 8
  %53 = sub i64 %52, %51
  store i64 %53, ptr %10, align 8
  %54 = load i64, ptr %11, align 8
  %55 = load ptr, ptr %8, align 8
  %56 = getelementptr inbounds nuw %struct._archiveHandle, ptr %55, i32 0, i32 70
  %57 = load i64, ptr %56, align 8
  %58 = add i64 %57, %54
  store i64 %58, ptr %56, align 8
  %59 = load ptr, ptr %8, align 8
  call void @dump_lo_buf(ptr noundef %59)
  call void @llvm.lifetime.end.p0(i64 8, ptr %11) #11
  br label %21, !llvm.loop !22

60:                                               ; preds = %21
  %61 = load ptr, ptr %8, align 8
  %62 = getelementptr inbounds nuw %struct._archiveHandle, ptr %61, i32 0, i32 69
  %63 = load ptr, ptr %62, align 8
  %64 = load ptr, ptr %8, align 8
  %65 = getelementptr inbounds nuw %struct._archiveHandle, ptr %64, i32 0, i32 70
  %66 = load i64, ptr %65, align 8
  %67 = getelementptr inbounds nuw i8, ptr %63, i64 %66
  %68 = load ptr, ptr %5, align 8
  %69 = load i64, ptr %10, align 8
  call void @llvm.memcpy.p0.p0.i64(ptr align 1 %67, ptr align 1 %68, i64 %69, i1 false)
  %70 = load i64, ptr %10, align 8
  %71 = load ptr, ptr %8, align 8
  %72 = getelementptr inbounds nuw %struct._archiveHandle, ptr %71, i32 0, i32 70
  %73 = load i64, ptr %72, align 8
  %74 = add i64 %73, %70
  store i64 %74, ptr %72, align 8
  %75 = load i64, ptr %6, align 8
  %76 = load i64, ptr %7, align 8
  %77 = mul i64 %75, %76
  %78 = trunc i64 %77 to i32
  store i32 %78, ptr %9, align 4
  call void @llvm.lifetime.end.p0(i64 8, ptr %10) #11
  br label %128

79:                                               ; preds = %4
  %80 = load ptr, ptr %8, align 8
  %81 = getelementptr inbounds nuw %struct._archiveHandle, ptr %80, i32 0, i32 38
  %82 = load ptr, ptr %81, align 8
  %83 = icmp ne ptr %82, null
  br i1 %83, label %84, label %95

84:                                               ; preds = %79
  %85 = load ptr, ptr %8, align 8
  %86 = getelementptr inbounds nuw %struct._archiveHandle, ptr %85, i32 0, i32 38
  %87 = load ptr, ptr %86, align 8
  %88 = load ptr, ptr %8, align 8
  %89 = load ptr, ptr %5, align 8
  %90 = load i64, ptr %6, align 8
  %91 = load i64, ptr %7, align 8
  %92 = mul i64 %90, %91
  %93 = call i64 %87(ptr noundef %88, ptr noundef %89, i64 noundef %92)
  %94 = trunc i64 %93 to i32
  store i32 %94, ptr %9, align 4
  br label %127

95:                                               ; preds = %79
  %96 = load ptr, ptr %8, align 8
  %97 = call i32 @RestoringToDB(ptr noundef %96)
  %98 = icmp ne i32 %97, 0
  br i1 %98, label %99, label %107

99:                                               ; preds = %95
  %100 = load ptr, ptr %8, align 8
  %101 = getelementptr inbounds nuw %struct._archiveHandle, ptr %100, i32 0, i32 0
  %102 = load ptr, ptr %5, align 8
  %103 = load i64, ptr %6, align 8
  %104 = load i64, ptr %7, align 8
  %105 = mul i64 %103, %104
  %106 = call i32 @ExecuteSqlCommandBuf(ptr noundef %101, ptr noundef %102, i64 noundef %105)
  store i32 %106, ptr %9, align 4
  br label %126

107:                                              ; preds = %95
  call void @llvm.lifetime.start.p0(i64 8, ptr %12) #11
  %108 = load ptr, ptr %8, align 8
  %109 = getelementptr inbounds nuw %struct._archiveHandle, ptr %108, i32 0, i32 52
  %110 = load ptr, ptr %109, align 8
  store ptr %110, ptr %12, align 8
  %111 = load ptr, ptr %12, align 8
  %112 = getelementptr inbounds nuw %struct.CompressFileHandle, ptr %111, i32 0, i32 3
  %113 = load ptr, ptr %112, align 8
  %114 = load ptr, ptr %5, align 8
  %115 = load i64, ptr %6, align 8
  %116 = load i64, ptr %7, align 8
  %117 = mul i64 %115, %116
  %118 = load ptr, ptr %12, align 8
  %119 = call zeroext i1 %113(ptr noundef %114, i64 noundef %117, ptr noundef %118)
  br i1 %119, label %120, label %125

120:                                              ; preds = %107
  %121 = load i64, ptr %6, align 8
  %122 = load i64, ptr %7, align 8
  %123 = mul i64 %121, %122
  %124 = trunc i64 %123 to i32
  store i32 %124, ptr %9, align 4
  br label %125

125:                                              ; preds = %120, %107
  call void @llvm.lifetime.end.p0(i64 8, ptr %12) #11
  br label %126

126:                                              ; preds = %125, %99
  br label %127

127:                                              ; preds = %126, %84
  br label %128

128:                                              ; preds = %127, %60
  %129 = load i32, ptr %9, align 4
  %130 = sext i32 %129 to i64
  %131 = load i64, ptr %6, align 8
  %132 = load i64, ptr %7, align 8
  %133 = mul i64 %131, %132
  %134 = icmp ne i64 %130, %133
  br i1 %134, label %135, label %142

135:                                              ; preds = %128
  br label %136

136:                                              ; preds = %135
  br label %137

137:                                              ; preds = %136
  call void (i32, i32, ptr, ...) @pg_log_generic(i32 noundef 4, i32 noundef 0, ptr noundef @.str.77)
  call void @exit_nicely(i32 noundef 1) #12
  unreachable

138:                                              ; No predecessors!
  br label %139

139:                                              ; preds = %138
  br label %140

140:                                              ; preds = %139
  br label %141

141:                                              ; preds = %140
  br label %142

142:                                              ; preds = %141, %128
  call void @llvm.lifetime.end.p0(i64 4, ptr %9) #11
  ret void
}