; Function Attrs: nounwind uwtable
define dso_local void @ahwrite(ptr noundef %0, i64 noundef %1, i64 noundef %2, ptr noundef %3) local_unnamed_addr #0 {
  %5 = getelementptr inbounds nuw i8, ptr %3, i64 472
  %6 = load i8, ptr %5, align 8, !range !4, !noundef !5
  %7 = trunc nuw i8 %6 to i1
  br i1 %7, label %8, label %37

8:                                                ; preds = %4
  %9 = mul i64 %2, %1
  %10 = getelementptr inbounds nuw i8, ptr %3, i64 648
  %11 = getelementptr inbounds nuw i8, ptr %3, i64 656
  %12 = load i64, ptr %10, align 8
  %13 = add i64 %12, %9
  %14 = load i64, ptr %11, align 8
  %15 = icmp ugt i64 %13, %14
  br i1 %15, label %.lr.ph, label %._crit_edge

.lr.ph:                                           ; preds = %8
  %16 = getelementptr inbounds nuw i8, ptr %3, i64 640
  br label %17

17:                                               ; preds = %.lr.ph, %17
  %18 = phi i64 [ %14, %.lr.ph ], [ %29, %17 ]
  %19 = phi i64 [ %12, %.lr.ph ], [ %27, %17 ]
  %.058 = phi ptr [ %0, %.lr.ph ], [ %23, %17 ]
  %.04957 = phi i64 [ %9, %.lr.ph ], [ %24, %17 ]
  %20 = sub i64 %18, %19
  %21 = load ptr, ptr %16, align 8
  %22 = getelementptr inbounds nuw i8, ptr %21, i64 %19
  tail call void @llvm.memcpy.p0.p0.i64(ptr align 1 %22, ptr align 1 %.058, i64 %20, i1 false)
  %23 = getelementptr inbounds nuw i8, ptr %.058, i64 %20
  %24 = sub i64 %.04957, %20
  %25 = load i64, ptr %10, align 8
  %26 = add i64 %25, %20
  store i64 %26, ptr %10, align 8
  tail call fastcc void @dump_lo_buf(ptr noundef nonnull %3)
  %27 = load i64, ptr %10, align 8
  %28 = add i64 %27, %24
  %29 = load i64, ptr %11, align 8
  %30 = icmp ugt i64 %28, %29
  br i1 %30, label %17, label %._crit_edge, !llvm.loop !43

._crit_edge:                                      ; preds = %17, %8
  %.049.lcssa = phi i64 [ %9, %8 ], [ %24, %17 ]
  %.0.lcssa = phi ptr [ %0, %8 ], [ %23, %17 ]
  %.lcssa = phi i64 [ %12, %8 ], [ %27, %17 ]
  %31 = getelementptr inbounds nuw i8, ptr %3, i64 640
  %32 = load ptr, ptr %31, align 8
  %33 = getelementptr inbounds nuw i8, ptr %32, i64 %.lcssa
  tail call void @llvm.memcpy.p0.p0.i64(ptr align 1 %33, ptr align 1 %.0.lcssa, i64 %.049.lcssa, i1 false)
  %34 = load i64, ptr %10, align 8
  %35 = add i64 %34, %.049.lcssa
  store i64 %35, ptr %10, align 8
  %36 = trunc i64 %9 to i32
  br label %62

37:                                               ; preds = %4
  %38 = getelementptr inbounds nuw i8, ptr %3, i64 408
  %39 = load ptr, ptr %38, align 8
  %.not = icmp eq ptr %39, null
  br i1 %.not, label %44, label %40

40:                                               ; preds = %37
  %41 = mul i64 %2, %1
  %42 = tail call i64 %39(ptr noundef nonnull %3, ptr noundef %0, i64 noundef %41) #22
  %43 = trunc i64 %42 to i32
  br label %62

44:                                               ; preds = %37
  %45 = getelementptr inbounds nuw i8, ptr %3, i64 8
  %46 = load ptr, ptr %45, align 8
  %.not.i = icmp eq ptr %46, null
  br i1 %.not.i, label %RestoringToDB.exit.thread, label %47

47:                                               ; preds = %44
  %48 = getelementptr inbounds nuw i8, ptr %46, i64 264
  %49 = load i32, ptr %48, align 8
  %.not4.i = icmp eq i32 %49, 0
  br i1 %.not4.i, label %RestoringToDB.exit.thread, label %RestoringToDB.exit

RestoringToDB.exit:                               ; preds = %47
  %50 = getelementptr inbounds nuw i8, ptr %3, i64 440
  %51 = load ptr, ptr %50, align 8
  %.not55 = icmp eq ptr %51, null
  br i1 %.not55, label %RestoringToDB.exit.thread, label %52

52:                                               ; preds = %RestoringToDB.exit
  %53 = mul i64 %2, %1
  %54 = tail call i32 @ExecuteSqlCommandBuf(ptr noundef nonnull %3, ptr noundef %0, i64 noundef %53) #22
  br label %62

RestoringToDB.exit.thread:                        ; preds = %44, %47, %RestoringToDB.exit
  %55 = getelementptr inbounds nuw i8, ptr %3, i64 496
  %56 = load ptr, ptr %55, align 8
  %57 = getelementptr inbounds nuw i8, ptr %56, i64 24
  %58 = load ptr, ptr %57, align 8
  %59 = mul i64 %2, %1
  %60 = tail call zeroext i1 %58(ptr noundef %0, i64 noundef %59, ptr noundef %56) #22
  %61 = trunc i64 %59 to i32
  %spec.select = select i1 %60, i32 %61, i32 0
  br label %62

62:                                               ; preds = %40, %RestoringToDB.exit.thread, %52, %._crit_edge
  %.pre-phi = phi i64 [ %41, %40 ], [ %59, %RestoringToDB.exit.thread ], [ %53, %52 ], [ %9, %._crit_edge ]
  %.048 = phi i32 [ %43, %40 ], [ %spec.select, %RestoringToDB.exit.thread ], [ %54, %52 ], [ %36, %._crit_edge ]
  %63 = sext i32 %.048 to i64
  %.not53 = icmp eq i64 %.pre-phi, %63
  br i1 %.not53, label %65, label %64

64:                                               ; preds = %62
  tail call void (i32, i32, ptr, ...) @pg_log_generic(i32 noundef 4, i32 noundef 0, ptr noundef nonnull @.str.77) #22
  tail call void @exit_nicely(i32 noundef 1) #23
  unreachable

65:                                               ; preds = %62
  ret void
}